target datalayout = "e-m:e-p270:32:32-p271:32:32-p272:64:64-i64:64-i128:128-f80:128-n8:16:32:64-S128"
target triple = "x86_64-pc-linux-gnu"

%struct.Curl_easy = type { i32, i64, i64, ptr, %struct.Curl_llist_node, %struct.Curl_llist_node, i32, i32, %struct.Curl_message, %struct.easy_pollset, %struct.Names, ptr, ptr, ptr, %struct.SingleRequest, %struct.UserDefined, ptr, ptr, %struct.Progress, %struct.UrlState, ptr, %struct.PureInfo, %struct.curl_tlssessioninfo }
%struct.Curl_llist_node = type { ptr, ptr, ptr, ptr }
%struct.Curl_message = type { %struct.Curl_llist_node, %struct.CURLMsg }
%struct.CURLMsg = type { i32, ptr, %union.anon }
%union.anon = type { ptr }
%struct.easy_pollset = type { [5 x i32], i32, [5 x i8] }
%struct.Names = type { ptr, i32 }
%struct.SingleRequest = type <{ i64, i64, i64, i64, %struct.curltime, i32, i32, i32, i32, i64, i32, i32, i32, i32, ptr, ptr, %struct.bufq, i64, i64, ptr, ptr, %union.anon.0, ptr, i8, i32, [3 x i8] }>
%struct.curltime = type { i64, i32 }
%struct.bufq = type { ptr, ptr, ptr, ptr, i64, i64, i64, i32 }
%union.anon.0 = type { ptr }
%struct.UserDefined = type <{ ptr, ptr, ptr, ptr, ptr, ptr, i16, [6 x i8], i64, i64, i64, ptr, ptr, i64, i16, i16, [4 x i8], ptr, ptr, ptr, ptr, ptr, ptr, ptr, ptr, ptr, ptr, ptr, ptr, ptr, ptr, ptr, ptr, ptr, ptr, ptr, ptr, ptr, ptr, ptr, i32, i32, i32, i32, i32, [4 x i8], i64, i64, i64, i64, i64, i64, i64, i64, ptr, ptr, %struct.curl_mimepart, ptr, ptr, i64, i8, i8, i8, [5 x i8], %struct.ssl_config_data, %struct.ssl_config_data, ptr, i16, i8, i8, [4 x i8], %struct.ssl_general_config, i32, i32, i32, [4 x i8], ptr, ptr, i8, [7 x i8], i64, i8, i8, i8, i8, i32, ptr, ptr, ptr, i8, i8, [2 x i8], i32, [63 x ptr], [8 x ptr], i32, i32, i32, [4 x i8], ptr, ptr, ptr, ptr, ptr, i8, [3 x i8], i32, i32, i32, i64, %struct.Curl_data_priority, ptr, ptr, i64, ptr, i64, ptr, ptr, ptr, i8, [3 x i8], i32, i8, i8, i64, [6 x i8] }>
%struct.curl_mimepart = type { ptr, ptr, i32, i32, ptr, ptr, ptr, ptr, ptr, ptr, ptr, ptr, ptr, ptr, ptr, i64, %struct.mime_state, ptr, %struct.mime_encoder_state, i64 }
%struct.mime_state = type { i32, ptr, i64 }
%struct.mime_encoder_state = type { i64, i64, i64, [256 x i8] }
%struct.ssl_config_data = type { %struct.ssl_primary_config, i64, ptr, ptr, ptr, ptr, ptr, ptr, ptr, i16 }
%struct.ssl_primary_config = type { ptr, ptr, ptr, ptr, ptr, ptr, ptr, ptr, ptr, ptr, ptr, ptr, i8, i32, i8, i8 }
%struct.ssl_general_config = type { i64, i32 }
%struct.Curl_data_priority = type { ptr, ptr, i32, i8 }
%struct.Progress = type { i64, %struct.pgrs_dir, %struct.pgrs_dir, i64, i64, i32, i32, i64, i64, i64, i64, i64, i64, i64, i64, i64, %struct.curltime, %struct.curltime, %struct.curltime, %struct.curltime, [6 x i64], [6 x %struct.curltime], i32, i8 }
%struct.pgrs_dir = type { i64, i64, i64, %struct.pgrs_measure }
%struct.pgrs_measure = type { %struct.curltime, i64 }
%struct.UrlState = type { %struct.curltime, i64, i64, %struct.dynbuf, ptr, i64, ptr, i32, i32, i32, ptr, i64, i32, i64, i32, ptr, %struct.digestdata, %struct.digestdata, %struct.auth, %struct.auth, %struct.Curl_async, ptr, %struct.curltime, %struct.Curl_tree, %struct.Curl_llist, [15 x %struct.time_node], ptr, ptr, i64, i64, %struct.Curl_data_priority, ptr, ptr, ptr, %struct.urlpieces, ptr, ptr, ptr, ptr, ptr, i64, %struct.dynbuf, %struct.Curl_llist, [2 x %struct.curl_header], ptr, i32, ptr, ptr, %struct.store_netrc, %struct.dynamically_allocated_data, i8, i8, i8, i8, i32 }
%struct.digestdata = type { ptr, ptr, ptr, ptr, ptr, ptr, i32, i8, i8 }
%struct.auth = type { i64, i64, i64, i8 }
%struct.Curl_async = type { ptr, ptr, ptr, ptr, i32, i32, i8 }
%struct.Curl_tree = type { ptr, ptr, ptr, ptr, %struct.curltime, ptr }
%struct.time_node = type { %struct.Curl_llist_node, %struct.curltime, i32 }
%struct.urlpieces = type { ptr, ptr, ptr, ptr, ptr, ptr, ptr, ptr }
%struct.dynbuf = type { ptr, i64, i64, i64 }
%struct.Curl_llist = type { ptr, ptr, ptr, i64 }
%struct.curl_header = type { ptr, ptr, i64, i64, i32, ptr }
%struct.store_netrc = type { %struct.dynbuf, ptr, i8 }
%struct.dynamically_allocated_data = type { ptr, ptr, ptr, ptr, ptr, ptr, ptr, ptr, ptr, ptr, ptr, ptr, ptr }
%struct.PureInfo = type { i32, i32, i32, i64, i64, i64, i64, i64, ptr, ptr, i64, i32, %struct.ip_quadruple, i32, ptr, i32, %struct.curl_certinfo, i32, i8 }
%struct.ip_quadruple = type { [46 x i8], [46 x i8], i32, i32 }
%struct.curl_certinfo = type { i32, ptr }
%struct.curl_tlssessioninfo = type { i32, ptr }
%struct.FILEPROTO = type { ptr, ptr, i32 }

@Curl_cfree = external global ptr, align 8
@.str.1 = private unnamed_addr constant [22 x i8] c"Couldn't open file %s\00", align 1

; Function Attrs: nounwind uwtable
define internal i32 @file_done(ptr noundef %0, i32 noundef %1, i1 noundef zeroext %2) #0 {
  %4 = alloca ptr, align 8
  %5 = alloca i32, align 4
  %6 = alloca i8, align 1
  %7 = alloca ptr, align 8
  store ptr %0, ptr %4, align 8, !tbaa !4
  store i32 %1, ptr %5, align 4, !tbaa !15
  %8 = zext i1 %2 to i8
  store i8 %8, ptr %6, align 1, !tbaa !19
  call void @llvm.lifetime.start.p0(i64 8, ptr %7) #5
  %9 = load ptr, ptr %4, align 8, !tbaa !4
  %10 = getelementptr inbounds nuw %struct.Curl_easy, ptr %9, i32 0, i32 14
  %11 = getelementptr inbounds nuw %struct.SingleRequest, ptr %10, i32 0, i32 21
  %12 = load ptr, ptr %11, align 8, !tbaa !12
  store ptr %12, ptr %7, align 8, !tbaa !21
  %13 = load ptr, ptr %7, align 8, !tbaa !21
  %14 = icmp ne ptr %13, null
  br i1 %14, label %15, label %39

15:                                               ; preds = %3
  br label %16

16:                                               ; preds = %15
  %17 = load ptr, ptr @Curl_cfree, align 8, !tbaa !11
  %18 = load ptr, ptr %7, align 8, !tbaa !21
  %19 = getelementptr inbounds nuw %struct.FILEPROTO, ptr %18, i32 0, i32 1
  %20 = load ptr, ptr %19, align 8, !tbaa !121
  call void %17(ptr noundef %20)
  %21 = load ptr, ptr %7, align 8, !tbaa !21
  %22 = getelementptr inbounds nuw %struct.FILEPROTO, ptr %21, i32 0, i32 1
  store ptr null, ptr %22, align 8, !tbaa !121
  br label %23

23:                                               ; preds = %16
  br label %24

24:                                               ; preds = %23
  %25 = load ptr, ptr %7, align 8, !tbaa !21
  %26 = getelementptr inbounds nuw %struct.FILEPROTO, ptr %25, i32 0, i32 0
  store ptr null, ptr %26, align 8, !tbaa !115
  %27 = load ptr, ptr %7, align 8, !tbaa !21
  %28 = getelementptr inbounds nuw %struct.FILEPROTO, ptr %27, i32 0, i32 2
  %29 = load i32, ptr %28, align 8, !tbaa !23
  %30 = icmp ne i32 %29, -1
  br i1 %30, label %31, label %36

31:                                               ; preds = %24
  %32 = load ptr, ptr %7, align 8, !tbaa !21
  %33 = getelementptr inbounds nuw %struct.FILEPROTO, ptr %32, i32 0, i32 2
  %34 = load i32, ptr %33, align 8, !tbaa !23
  %35 = call i32 @close(i32 noundef %34)
  br label %36

36:                                               ; preds = %31, %24
  %37 = load ptr, ptr %7, align 8, !tbaa !21
  %38 = getelementptr inbounds nuw %struct.FILEPROTO, ptr %37, i32 0, i32 2
  store i32 -1, ptr %38, align 8, !tbaa !23
  br label %39

39:                                               ; preds = %36, %3
  call void @llvm.lifetime.end.p0(i64 8, ptr %7) #5
  ret i32 0
}

; Function Attrs: nounwind uwtable
define internal i32 @file_connect(ptr noundef %0, ptr noundef %1) #0 {
  %3 = alloca i32, align 4
  %4 = alloca ptr, align 8
  %5 = alloca ptr, align 8
  %6 = alloca ptr, align 8
  %7 = alloca ptr, align 8
  %8 = alloca i32, align 4
  %9 = alloca i64, align 8
  %10 = alloca i32, align 4
  %11 = alloca i32, align 4
  store ptr %0, ptr %4, align 8, !tbaa !4
  store ptr %1, ptr %5, align 8, !tbaa !13
  call void @llvm.lifetime.start.p0(i64 8, ptr %6) #5
  call void @llvm.lifetime.start.p0(i64 8, ptr %7) #5
  %12 = load ptr, ptr %4, align 8, !tbaa !4
  %13 = getelementptr inbounds nuw %struct.Curl_easy, ptr %12, i32 0, i32 14
  %14 = getelementptr inbounds nuw %struct.SingleRequest, ptr %13, i32 0, i32 21
  %15 = load ptr, ptr %14, align 8, !tbaa !12
  store ptr %15, ptr %7, align 8, !tbaa !21
  call void @llvm.lifetime.start.p0(i64 4, ptr %8) #5
  call void @llvm.lifetime.start.p0(i64 8, ptr %9) #5
  call void @llvm.lifetime.start.p0(i64 4, ptr %10) #5
  %16 = load ptr, ptr %7, align 8, !tbaa !21
  %17 = getelementptr inbounds nuw %struct.FILEPROTO, ptr %16, i32 0, i32 0
  %18 = load ptr, ptr %17, align 8, !tbaa !115
  %19 = icmp ne ptr %18, null
  br i1 %19, label %20, label %22

20:                                               ; preds = %2
  %21 = load ptr, ptr %5, align 8, !tbaa !13
  store i8 1, ptr %21, align 1, !tbaa !19
  store i32 0, ptr %3, align 4
  store i32 1, ptr %11, align 4
  br label %86

22:                                               ; preds = %2
  %23 = load ptr, ptr %4, align 8, !tbaa !4
  %24 = getelementptr inbounds nuw %struct.Curl_easy, ptr %23, i32 0, i32 19
  %25 = getelementptr inbounds nuw %struct.UrlState, ptr %24, i32 0, i32 34
  %26 = getelementptr inbounds nuw %struct.urlpieces, ptr %25, i32 0, i32 6
  %27 = load ptr, ptr %26, align 8, !tbaa !122
  %28 = call i32 @Curl_urldecode(ptr noundef %27, i64 noundef 0, ptr noundef %6, ptr noundef %9, i32 noundef 4)
  store i32 %28, ptr %10, align 4, !tbaa !15
  %29 = load i32, ptr %10, align 4, !tbaa !15
  %30 = icmp ne i32 %29, 0
  br i1 %30, label %31, label %33

31:                                               ; preds = %22
  %32 = load i32, ptr %10, align 4, !tbaa !15
  store i32 %32, ptr %3, align 4
  store i32 1, ptr %11, align 4
  br label %86

33:                                               ; preds = %22
  %34 = load ptr, ptr %6, align 8, !tbaa !104
  %35 = load i64, ptr %9, align 8, !tbaa !17
  %36 = call ptr @memchr(ptr noundef %34, i32 noundef 0, i64 noundef %35) #6
  %37 = icmp ne ptr %36, null
  br i1 %37, label %38, label %44

38:                                               ; preds = %33
  br label %39

39:                                               ; preds = %38
  %40 = load ptr, ptr @Curl_cfree, align 8, !tbaa !11
  %41 = load ptr, ptr %6, align 8, !tbaa !104
  call void %40(ptr noundef %41)
  store ptr null, ptr %6, align 8, !tbaa !104
  br label %42

42:                                               ; preds = %39
  br label %43

43:                                               ; preds = %42
  store i32 3, ptr %3, align 4
  store i32 1, ptr %11, align 4
  br label %86

44:                                               ; preds = %33
  %45 = load ptr, ptr %6, align 8, !tbaa !104
  %46 = call i32 (ptr, i32, ...) @open64(ptr noundef %45, i32 noundef 0)
  store i32 %46, ptr %8, align 4, !tbaa !15
  %47 = load ptr, ptr %6, align 8, !tbaa !104
  %48 = load ptr, ptr %7, align 8, !tbaa !21
  %49 = getelementptr inbounds nuw %struct.FILEPROTO, ptr %48, i32 0, i32 0
  store ptr %47, ptr %49, align 8, !tbaa !115
  br label %50

50:                                               ; preds = %44
  %51 = load ptr, ptr @Curl_cfree, align 8, !tbaa !11
  %52 = load ptr, ptr %7, align 8, !tbaa !21
  %53 = getelementptr inbounds nuw %struct.FILEPROTO, ptr %52, i32 0, i32 1
  %54 = load ptr, ptr %53, align 8, !tbaa !121
  call void %51(ptr noundef %54)
  %55 = load ptr, ptr %7, align 8, !tbaa !21
  %56 = getelementptr inbounds nuw %struct.FILEPROTO, ptr %55, i32 0, i32 1
  store ptr null, ptr %56, align 8, !tbaa !121
  br label %57

57:                                               ; preds = %50
  br label %58

58:                                               ; preds = %57
  %59 = load ptr, ptr %6, align 8, !tbaa !104
  %60 = load ptr, ptr %7, align 8, !tbaa !21
  %61 = getelementptr inbounds nuw %struct.FILEPROTO, ptr %60, i32 0, i32 1
  store ptr %59, ptr %61, align 8, !tbaa !121
  %62 = load i32, ptr %8, align 4, !tbaa !15
  %63 = load ptr, ptr %7, align 8, !tbaa !21
  %64 = getelementptr inbounds nuw %struct.FILEPROTO, ptr %63, i32 0, i32 2
  store i32 %62, ptr %64, align 8, !tbaa !23
  %65 = load ptr, ptr %4, align 8, !tbaa !4
  %66 = getelementptr inbounds nuw %struct.Curl_easy, ptr %65, i32 0, i32 19
  %67 = getelementptr inbounds nuw %struct.UrlState, ptr %66, i32 0, i32 54
  %68 = load i32, ptr %67, align 4
  %69 = lshr i32 %68, 19
  %70 = and i32 %69, 1
  %71 = icmp ne i32 %70, 0
  br i1 %71, label %84, label %72

72:                                               ; preds = %58
  %73 = load i32, ptr %8, align 4, !tbaa !15
  %74 = icmp eq i32 %73, -1
  br i1 %74, label %75, label %84

75:                                               ; preds = %72
  %76 = load ptr, ptr %4, align 8, !tbaa !4
  %77 = load ptr, ptr %4, align 8, !tbaa !4
  %78 = getelementptr inbounds nuw %struct.Curl_easy, ptr %77, i32 0, i32 19
  %79 = getelementptr inbounds nuw %struct.UrlState, ptr %78, i32 0, i32 34
  %80 = getelementptr inbounds nuw %struct.urlpieces, ptr %79, i32 0, i32 6
  %81 = load ptr, ptr %80, align 8, !tbaa !122
  call void (ptr, ptr, ...) @Curl_failf(ptr noundef %76, ptr noundef @.str.1, ptr noundef %81)
  %82 = load ptr, ptr %4, align 8, !tbaa !4
  %83 = call i32 @file_done(ptr noundef %82, i32 noundef 37, i1 noundef zeroext false)
  store i32 37, ptr %3, align 4
  store i32 1, ptr %11, align 4
  br label %86

84:                                               ; preds = %72, %58
  %85 = load ptr, ptr %5, align 8, !tbaa !13
  store i8 1, ptr %85, align 1, !tbaa !19
  store i32 0, ptr %3, align 4
  store i32 1, ptr %11, align 4
  br label %86

86:                                               ; preds = %84, %75, %43, %31, %20
  call void @llvm.lifetime.end.p0(i64 4, ptr %10) #5
  call void @llvm.lifetime.end.p0(i64 8, ptr %9) #5
  call void @llvm.lifetime.end.p0(i64 4, ptr %8) #5
  call void @llvm.lifetime.end.p0(i64 8, ptr %7) #5
  call void @llvm.lifetime.end.p0(i64 8, ptr %6) #5
  %87 = load i32, ptr %3, align 4
  ret i32 %87
}