; Function Attrs: nounwind uwtable
define internal i32 @file_connect(ptr noundef %0, ptr noundef writeonly captures(none) %1) #0 {
  %3 = alloca ptr, align 8
  %4 = alloca i64, align 8
  call void @llvm.lifetime.start.p0(i64 8, ptr nonnull %3) #8
  %5 = getelementptr inbounds nuw i8, ptr %0, i64 432
  %6 = load ptr, ptr %5, align 8, !tbaa !8
  call void @llvm.lifetime.start.p0(i64 8, ptr nonnull %4) #8
  %7 = load ptr, ptr %6, align 8, !tbaa !11
  %.not = icmp eq ptr %7, null
  br i1 %.not, label %9, label %8

8:                                                ; preds = %2
  store i8 1, ptr %1, align 1, !tbaa !9
  br label %file_done.exit

9:                                                ; preds = %2
  %10 = getelementptr inbounds nuw i8, ptr %0, i64 4464
  %11 = load ptr, ptr %10, align 8, !tbaa !109
  %12 = call i32 @Curl_urldecode(ptr noundef %11, i64 noundef 0, ptr noundef nonnull %3, ptr noundef nonnull %4, i32 noundef 4) #8
  %.not20 = icmp eq i32 %12, 0
  br i1 %.not20, label %13, label %file_done.exit

13:                                               ; preds = %9
  %14 = load ptr, ptr %3, align 8, !tbaa !88
  %15 = load i64, ptr %4, align 8, !tbaa !89
  %16 = call ptr @memchr(ptr noundef %14, i32 noundef 0, i64 noundef %15) #9
  %.not21 = icmp eq ptr %16, null
  br i1 %.not21, label %19, label %17

17:                                               ; preds = %13
  %18 = load ptr, ptr @Curl_cfree, align 8, !tbaa !4
  call void %18(ptr noundef %14) #8
  br label %file_done.exit

19:                                               ; preds = %13
  %20 = call i32 (ptr, i32, ...) @open64(ptr noundef %14, i32 noundef 0) #8
  %21 = load ptr, ptr %3, align 8, !tbaa !88
  store ptr %21, ptr %6, align 8, !tbaa !11
  %22 = load ptr, ptr @Curl_cfree, align 8, !tbaa !4
  %23 = getelementptr inbounds nuw i8, ptr %6, i64 8
  %24 = load ptr, ptr %23, align 8, !tbaa !108
  call void %22(ptr noundef %24) #8
  %25 = load ptr, ptr %3, align 8, !tbaa !88
  store ptr %25, ptr %23, align 8, !tbaa !108
  %26 = getelementptr inbounds nuw i8, ptr %6, i64 16
  store i32 %20, ptr %26, align 8, !tbaa !91
  %27 = getelementptr inbounds nuw i8, ptr %0, i64 4876
  %28 = load i32, ptr %27, align 4
  %29 = and i32 %28, 524288
  %30 = icmp eq i32 %29, 0
  %31 = icmp eq i32 %20, -1
  %or.cond = and i1 %31, %30
  br i1 %or.cond, label %32, label %44

32:                                               ; preds = %19
  %33 = load ptr, ptr %10, align 8, !tbaa !109
  call void (ptr, ptr, ...) @Curl_failf(ptr noundef nonnull %0, ptr noundef nonnull @.str.1, ptr noundef %33) #8
  %34 = load ptr, ptr %5, align 8, !tbaa !8
  %.not.i = icmp eq ptr %34, null
  br i1 %.not.i, label %file_done.exit, label %35

35:                                               ; preds = %32
  %36 = load ptr, ptr @Curl_cfree, align 8, !tbaa !4
  %37 = getelementptr inbounds nuw i8, ptr %34, i64 8
  %38 = load ptr, ptr %37, align 8, !tbaa !108
  call void %36(ptr noundef %38) #8
  %39 = getelementptr inbounds nuw i8, ptr %34, i64 16
  call void @llvm.memset.p0.i64(ptr noundef nonnull align 8 dereferenceable(16) %34, i8 0, i64 16, i1 false)
  %40 = load i32, ptr %39, align 8, !tbaa !91
  %.not9.i = icmp eq i32 %40, -1
  br i1 %.not9.i, label %43, label %41

41:                                               ; preds = %35
  %42 = call i32 @close(i32 noundef %40) #8
  br label %43

43:                                               ; preds = %41, %35
  store i32 -1, ptr %39, align 8, !tbaa !91
  br label %file_done.exit

44:                                               ; preds = %19
  store i8 1, ptr %1, align 1, !tbaa !9
  br label %file_done.exit

file_done.exit:                                   ; preds = %43, %32, %9, %44, %17, %8
  %.0 = phi i32 [ 0, %8 ], [ 3, %17 ], [ 0, %44 ], [ %12, %9 ], [ 37, %32 ], [ 37, %43 ]
  call void @llvm.lifetime.end.p0(i64 8, ptr nonnull %4) #8
  call void @llvm.lifetime.end.p0(i64 8, ptr nonnull %3) #8
  ret i32 %.0
}